target datalayout = "e-m:e-p270:32:32-p271:32:32-p272:64:64-i64:64-i128:128-f80:128-n8:16:32:64-S128"
target triple = "x86_64-pc-linux-gnu"

%struct.blake2b_state = type <{ [8 x i64], [2 x i64], [2 x i64], [256 x i8], i64, i8 }>
%struct.blake2b_param_ = type { i8, i8, i8, i8, [4 x i8], [8 x i8], i8, i8, [14 x i8], [16 x i8], [16 x i8] }

@blake2b_IV = internal constant [8 x i64] [i64 7640891576956012808, i64 -4942790177534073029, i64 4354685564936845355, i64 -6534734903238641935, i64 5840696475078001361, i64 -7276294671716946913, i64 2270897969802886507, i64 6620516959819538809], align 16

; Function Attrs: inlinehint nounwind ssp uwtable
define internal i64 @load64_le(ptr noundef %0) #2 {
  %2 = alloca ptr, align 8
  %3 = alloca i64, align 8
  store ptr %0, ptr %2, align 8
  call void @llvm.lifetime.start.p0(i64 8, ptr %3) #8
  %4 = load ptr, ptr %2, align 8
  %5 = call ptr @memcpy.inline(ptr noundef %3, ptr noundef %4, i64 noundef 8) #8
  %6 = load i64, ptr %3, align 8
  call void @llvm.lifetime.end.p0(i64 8, ptr %3) #8
  ret i64 %6
}

; Function Attrs: inlinehint nounwind ssp uwtable
define internal i32 @blake2b_init0(ptr noundef %0) #2 {
  %2 = alloca ptr, align 8
  %3 = alloca i32, align 4
  store ptr %0, ptr %2, align 8
  call void @llvm.lifetime.start.p0(i64 4, ptr %3) #8
  store i32 0, ptr %3, align 4
  br label %4

4:                                                ; preds = %17, %1
  %5 = load i32, ptr %3, align 4
  %6 = icmp slt i32 %5, 8
  br i1 %6, label %7, label %20

7:                                                ; preds = %4
  %8 = load i32, ptr %3, align 4
  %9 = sext i32 %8 to i64
  %10 = getelementptr [8 x i64], ptr @blake2b_IV, i64 0, i64 %9
  %11 = load i64, ptr %10, align 8
  %12 = load ptr, ptr %2, align 8
  %13 = getelementptr inbounds nuw %struct.blake2b_state, ptr %12, i32 0, i32 0
  %14 = load i32, ptr %3, align 4
  %15 = sext i32 %14 to i64
  %16 = getelementptr [8 x i64], ptr %13, i64 0, i64 %15
  store i64 %11, ptr %16, align 1
  br label %17

17:                                               ; preds = %7
  %18 = load i32, ptr %3, align 4
  %19 = add i32 %18, 1
  store i32 %19, ptr %3, align 4
  br label %4, !llvm.loop !6

20:                                               ; preds = %4
  %21 = load ptr, ptr %2, align 8
  %22 = getelementptr inbounds nuw %struct.blake2b_state, ptr %21, i32 0, i32 1
  %23 = call ptr @memset.inline(ptr noundef %22, i32 noundef 0, i64 noundef 297) #8
  call void @llvm.lifetime.end.p0(i64 4, ptr %3) #8
  ret i32 0
}

; Function Attrs: alwaysinline nounwind
define internal ptr @memcpy.inline(ptr noalias nonnull %0, ptr noalias nonnull %1, i64 %2) #4 {
  %4 = alloca ptr, align 8
  %5 = alloca ptr, align 8
  %6 = alloca i64, align 8
  store ptr %0, ptr %4, align 8
  store ptr %1, ptr %5, align 8
  store i64 %2, ptr %6, align 8
  %7 = load ptr, ptr %4, align 8
  %8 = load ptr, ptr %5, align 8
  %9 = load i64, ptr %6, align 8
  %10 = load ptr, ptr %4, align 8
  %11 = call i64 @llvm.objectsize.i64.p0(ptr %10, i1 false, i1 true, i1 true)
  %12 = call ptr @__memcpy_chk(ptr noundef %7, ptr noundef %8, i64 noundef %9, i64 noundef %11) #8
  ret ptr %12
}

; Function Attrs: nounwind ssp uwtable
define hidden i32 @_sodium_blake2b_init_param(ptr noundef %0, ptr noundef %1) #0 {
  %3 = alloca ptr, align 8
  %4 = alloca ptr, align 8
  %5 = alloca i64, align 8
  %6 = alloca ptr, align 8
  store ptr %0, ptr %3, align 8
  store ptr %1, ptr %4, align 8
  call void @llvm.lifetime.start.p0(i64 8, ptr %5) #8
  call void @llvm.lifetime.start.p0(i64 8, ptr %6) #8
  %7 = load ptr, ptr %3, align 8
  %8 = call i32 @blake2b_init0(ptr noundef %7)
  %9 = load ptr, ptr %4, align 8
  store ptr %9, ptr %6, align 8
  store i64 0, ptr %5, align 8
  br label %10

10:                                               ; preds = %25, %2
  %11 = load i64, ptr %5, align 8
  %12 = icmp ult i64 %11, 8
  br i1 %12, label %13, label %28

13:                                               ; preds = %10
  %14 = load ptr, ptr %6, align 8
  %15 = load i64, ptr %5, align 8
  %16 = mul i64 8, %15
  %17 = getelementptr i8, ptr %14, i64 %16
  %18 = call i64 @load64_le(ptr noundef %17)
  %19 = load ptr, ptr %3, align 8
  %20 = getelementptr inbounds nuw %struct.blake2b_state, ptr %19, i32 0, i32 0
  %21 = load i64, ptr %5, align 8
  %22 = getelementptr [8 x i64], ptr %20, i64 0, i64 %21
  %23 = load i64, ptr %22, align 1
  %24 = xor i64 %23, %18
  store i64 %24, ptr %22, align 1
  br label %25

25:                                               ; preds = %13
  %26 = load i64, ptr %5, align 8
  %27 = add i64 %26, 1
  store i64 %27, ptr %5, align 8
  br label %10, !llvm.loop !4

28:                                               ; preds = %10
  call void @llvm.lifetime.end.p0(i64 8, ptr %6) #8
  call void @llvm.lifetime.end.p0(i64 8, ptr %5) #8
  ret i32 0
}

; Function Attrs: alwaysinline nounwind
define internal ptr @memset.inline(ptr nonnull %0, i32 %1, i64 %2) #4 {
  %4 = alloca ptr, align 8
  %5 = alloca i32, align 4
  %6 = alloca i64, align 8
  store ptr %0, ptr %4, align 8
  store i32 %1, ptr %5, align 4
  store i64 %2, ptr %6, align 8
  %7 = load ptr, ptr %4, align 8
  %8 = load i32, ptr %5, align 4
  %9 = load i64, ptr %6, align 8
  %10 = load ptr, ptr %4, align 8
  %11 = call i64 @llvm.objectsize.i64.p0(ptr %10, i1 false, i1 true, i1 true)
  %12 = call ptr @__memset_chk(ptr noundef %7, i32 noundef %8, i64 noundef %9, i64 noundef %11) #8
  ret ptr %12
}

; Function Attrs: inlinehint nounwind ssp uwtable
define internal void @store64_le(ptr noundef %0, i64 noundef %1) #2 {
  %3 = alloca ptr, align 8
  %4 = alloca i64, align 8
  store ptr %0, ptr %3, align 8
  store i64 %1, ptr %4, align 8
  %5 = load ptr, ptr %3, align 8
  %6 = call ptr @memcpy.inline(ptr noundef %5, ptr noundef %4, i64 noundef 8) #8
  ret void
}

; Function Attrs: inlinehint nounwind ssp uwtable
define internal void @store32_le(ptr noundef %0, i32 noundef %1) #2 {
  %3 = alloca ptr, align 8
  %4 = alloca i32, align 4
  store ptr %0, ptr %3, align 8
  store i32 %1, ptr %4, align 4
  %5 = load ptr, ptr %3, align 8
  %6 = call ptr @memcpy.inline(ptr noundef %5, ptr noundef %4, i64 noundef 4) #8
  ret void
}

; Function Attrs: nounwind ssp uwtable
define hidden i32 @_sodium_blake2b_init(ptr noundef %0, i8 noundef zeroext %1) #0 {
  %3 = alloca ptr, align 8
  %4 = alloca i8, align 1
  %5 = alloca [1 x %struct.blake2b_param_], align 16
  store ptr %0, ptr %3, align 8
  store i8 %1, ptr %4, align 1
  call void @llvm.lifetime.start.p0(i64 64, ptr %5) #8
  %6 = load i8, ptr %4, align 1
  %7 = icmp ne i8 %6, 0
  br i1 %7, label %8, label %12

8:                                                ; preds = %2
  %9 = load i8, ptr %4, align 1
  %10 = zext i8 %9 to i32
  %11 = icmp sgt i32 %10, 64
  br i1 %11, label %12, label %13

12:                                               ; preds = %8, %2
  call void @sodium_misuse() #9
  unreachable

13:                                               ; preds = %8
  %14 = load i8, ptr %4, align 1
  %15 = getelementptr inbounds [1 x %struct.blake2b_param_], ptr %5, i64 0, i64 0
  %16 = getelementptr inbounds nuw %struct.blake2b_param_, ptr %15, i32 0, i32 0
  store i8 %14, ptr %16, align 16
  %17 = getelementptr inbounds [1 x %struct.blake2b_param_], ptr %5, i64 0, i64 0
  %18 = getelementptr inbounds nuw %struct.blake2b_param_, ptr %17, i32 0, i32 1
  store i8 0, ptr %18, align 1
  %19 = getelementptr inbounds [1 x %struct.blake2b_param_], ptr %5, i64 0, i64 0
  %20 = getelementptr inbounds nuw %struct.blake2b_param_, ptr %19, i32 0, i32 2
  store i8 1, ptr %20, align 2
  %21 = getelementptr inbounds [1 x %struct.blake2b_param_], ptr %5, i64 0, i64 0
  %22 = getelementptr inbounds nuw %struct.blake2b_param_, ptr %21, i32 0, i32 3
  store i8 1, ptr %22, align 1
  %23 = getelementptr inbounds [1 x %struct.blake2b_param_], ptr %5, i64 0, i64 0
  %24 = getelementptr inbounds nuw %struct.blake2b_param_, ptr %23, i32 0, i32 4
  %25 = getelementptr inbounds [4 x i8], ptr %24, i64 0, i64 0
  call void @store32_le(ptr noundef %25, i32 noundef 0)
  %26 = getelementptr inbounds [1 x %struct.blake2b_param_], ptr %5, i64 0, i64 0
  %27 = getelementptr inbounds nuw %struct.blake2b_param_, ptr %26, i32 0, i32 5
  %28 = getelementptr inbounds [8 x i8], ptr %27, i64 0, i64 0
  call void @store64_le(ptr noundef %28, i64 noundef 0)
  %29 = getelementptr inbounds [1 x %struct.blake2b_param_], ptr %5, i64 0, i64 0
  %30 = getelementptr inbounds nuw %struct.blake2b_param_, ptr %29, i32 0, i32 6
  store i8 0, ptr %30, align 16
  %31 = getelementptr inbounds [1 x %struct.blake2b_param_], ptr %5, i64 0, i64 0
  %32 = getelementptr inbounds nuw %struct.blake2b_param_, ptr %31, i32 0, i32 7
  store i8 0, ptr %32, align 1
  %33 = getelementptr inbounds [1 x %struct.blake2b_param_], ptr %5, i64 0, i64 0
  %34 = getelementptr inbounds nuw %struct.blake2b_param_, ptr %33, i32 0, i32 8
  %35 = getelementptr inbounds [14 x i8], ptr %34, i64 0, i64 0
  %36 = call ptr @memset.inline(ptr noundef %35, i32 noundef 0, i64 noundef 14) #8
  %37 = getelementptr inbounds [1 x %struct.blake2b_param_], ptr %5, i64 0, i64 0
  %38 = getelementptr inbounds nuw %struct.blake2b_param_, ptr %37, i32 0, i32 9
  %39 = getelementptr inbounds [16 x i8], ptr %38, i64 0, i64 0
  %40 = call ptr @memset.inline(ptr noundef %39, i32 noundef 0, i64 noundef 16) #8
  %41 = getelementptr inbounds [1 x %struct.blake2b_param_], ptr %5, i64 0, i64 0
  %42 = getelementptr inbounds nuw %struct.blake2b_param_, ptr %41, i32 0, i32 10
  %43 = getelementptr inbounds [16 x i8], ptr %42, i64 0, i64 0
  %44 = call ptr @memset.inline(ptr noundef %43, i32 noundef 0, i64 noundef 16) #8
  %45 = load ptr, ptr %3, align 8
  %46 = getelementptr inbounds [1 x %struct.blake2b_param_], ptr %5, i64 0, i64 0
  %47 = call i32 @_sodium_blake2b_init_param(ptr noundef %45, ptr noundef %46)
  call void @llvm.lifetime.end.p0(i64 64, ptr %5) #8
  ret i32 %47
}

; Function Attrs: nounwind ssp uwtable
define hidden i32 @_sodium_blake2b(ptr noundef %0, ptr noundef %1, ptr noundef %2, i8 noundef zeroext %3, i64 noundef %4, i8 noundef zeroext %5) #0 {
  %7 = alloca ptr, align 8
  %8 = alloca ptr, align 8
  %9 = alloca ptr, align 8
  %10 = alloca i8, align 1
  %11 = alloca i64, align 8
  %12 = alloca i8, align 1
  %13 = alloca [1 x %struct.blake2b_state], align 64
  store ptr %0, ptr %7, align 8
  store ptr %1, ptr %8, align 8
  store ptr %2, ptr %9, align 8
  store i8 %3, ptr %10, align 1
  store i64 %4, ptr %11, align 8
  store i8 %5, ptr %12, align 1
  call void @llvm.lifetime.start.p0(i64 361, ptr %13) #8
  %14 = load ptr, ptr %8, align 8
  %15 = icmp eq ptr null, %14
  br i1 %15, label %16, label %20

16:                                               ; preds = %6
  %17 = load i64, ptr %11, align 8
  %18 = icmp ugt i64 %17, 0
  br i1 %18, label %19, label %20

19:                                               ; preds = %16
  call void @sodium_misuse() #9
  unreachable

20:                                               ; preds = %16, %6
  %21 = load ptr, ptr %7, align 8
  %22 = icmp eq ptr null, %21
  br i1 %22, label %23, label %24

23:                                               ; preds = %20
  call void @sodium_misuse() #9
  unreachable

24:                                               ; preds = %20
  %25 = load i8, ptr %10, align 1
  %26 = icmp ne i8 %25, 0
  br i1 %26, label %27, label %31

27:                                               ; preds = %24
  %28 = load i8, ptr %10, align 1
  %29 = zext i8 %28 to i32
  %30 = icmp sgt i32 %29, 64
  br i1 %30, label %31, label %32

31:                                               ; preds = %27, %24
  call void @sodium_misuse() #9
  unreachable

32:                                               ; preds = %27
  %33 = load ptr, ptr %9, align 8
  %34 = icmp eq ptr null, %33
  br i1 %34, label %35, label %40

35:                                               ; preds = %32
  %36 = load i8, ptr %12, align 1
  %37 = zext i8 %36 to i32
  %38 = icmp sgt i32 %37, 0
  br i1 %38, label %39, label %40

39:                                               ; preds = %35
  call void @sodium_misuse() #9
  unreachable

40:                                               ; preds = %35, %32
  %41 = load i8, ptr %12, align 1
  %42 = zext i8 %41 to i32
  %43 = icmp sgt i32 %42, 64
  br i1 %43, label %44, label %45

44:                                               ; preds = %40
  call void @sodium_misuse() #9
  unreachable

45:                                               ; preds = %40
  %46 = load i8, ptr %12, align 1
  %47 = zext i8 %46 to i32
  %48 = icmp sgt i32 %47, 0
  br i1 %48, label %49, label %58

49:                                               ; preds = %45
  %50 = getelementptr inbounds [1 x %struct.blake2b_state], ptr %13, i64 0, i64 0
  %51 = load i8, ptr %10, align 1
  %52 = load ptr, ptr %9, align 8
  %53 = load i8, ptr %12, align 1
  %54 = call i32 @_sodium_blake2b_init_key(ptr noundef %50, i8 noundef zeroext %51, ptr noundef %52, i8 noundef zeroext %53)
  %55 = icmp slt i32 %54, 0
  br i1 %55, label %56, label %57

56:                                               ; preds = %49
  call void @sodium_misuse() #9
  unreachable

57:                                               ; preds = %49
  br label %65

58:                                               ; preds = %45
  %59 = getelementptr inbounds [1 x %struct.blake2b_state], ptr %13, i64 0, i64 0
  %60 = load i8, ptr %10, align 1
  %61 = call i32 @_sodium_blake2b_init(ptr noundef %59, i8 noundef zeroext %60)
  %62 = icmp slt i32 %61, 0
  br i1 %62, label %63, label %64

63:                                               ; preds = %58
  call void @sodium_misuse() #9
  unreachable

64:                                               ; preds = %58
  br label %65

65:                                               ; preds = %64, %57
  %66 = getelementptr inbounds [1 x %struct.blake2b_state], ptr %13, i64 0, i64 0
  %67 = load ptr, ptr %8, align 8
  %68 = load i64, ptr %11, align 8
  %69 = call i32 @_sodium_blake2b_update(ptr noundef %66, ptr noundef %67, i64 noundef %68)
  %70 = getelementptr inbounds [1 x %struct.blake2b_state], ptr %13, i64 0, i64 0
  %71 = load ptr, ptr %7, align 8
  %72 = load i8, ptr %10, align 1
  %73 = call i32 @_sodium_blake2b_final(ptr noundef %70, ptr noundef %71, i8 noundef zeroext %72)
  call void @llvm.lifetime.end.p0(i64 361, ptr %13) #8
  ret i32 0
}