; Function Attrs: nounwind ssp uwtable
define hidden noundef i32 @_sodium_blake2b(ptr noundef %0, ptr noundef readonly captures(address_is_null) %1, ptr noundef captures(address_is_null) %2, i8 noundef zeroext %3, i64 noundef %4, i8 noundef zeroext %5) local_unnamed_addr #2 {
  %7 = alloca [1 x %struct.blake2b_param_], align 16
  %8 = alloca [1 x %struct.blake2b_state], align 64
  call void @llvm.lifetime.start.p0(i64 361, ptr nonnull %8) #8
  %9 = icmp eq ptr %1, null
  %10 = icmp ne i64 %4, 0
  %or.cond = and i1 %9, %10
  br i1 %or.cond, label %11, label %12

11:                                               ; preds = %6
  tail call void @sodium_misuse() #9
  unreachable

12:                                               ; preds = %6
  %13 = icmp eq ptr %0, null
  br i1 %13, label %14, label %15

14:                                               ; preds = %12
  tail call void @sodium_misuse() #9
  unreachable

15:                                               ; preds = %12
  %16 = add i8 %3, -65
  %or.cond4 = icmp ult i8 %16, -64
  br i1 %or.cond4, label %17, label %18

17:                                               ; preds = %15
  tail call void @sodium_misuse() #9
  unreachable

18:                                               ; preds = %15
  %19 = icmp eq ptr %2, null
  %20 = icmp ne i8 %5, 0
  %or.cond7 = and i1 %19, %20
  br i1 %or.cond7, label %21, label %22

21:                                               ; preds = %18
  tail call void @sodium_misuse() #9
  unreachable

22:                                               ; preds = %18
  %23 = icmp ugt i8 %5, 64
  br i1 %23, label %24, label %25

24:                                               ; preds = %22
  tail call void @sodium_misuse() #9
  unreachable

25:                                               ; preds = %22
  br i1 %20, label %26, label %28

26:                                               ; preds = %25
  %27 = call i32 @_sodium_blake2b_init_key(ptr noundef nonnull %8, i8 noundef zeroext %3, ptr noundef %2, i8 noundef zeroext %5)
  br label %42

28:                                               ; preds = %25
  call void @llvm.lifetime.start.p0(i64 64, ptr nonnull %7) #8
  store i8 %3, ptr %7, align 16
  %29 = getelementptr inbounds nuw i8, ptr %7, i64 1
  store i8 0, ptr %29, align 1
  %30 = getelementptr inbounds nuw i8, ptr %7, i64 2
  store i8 1, ptr %30, align 2
  %31 = getelementptr inbounds nuw i8, ptr %7, i64 3
  store i8 1, ptr %31, align 1
  %32 = getelementptr inbounds nuw i8, ptr %7, i64 4
  call void @llvm.memset.p0.i64(ptr noundef nonnull align 4 dereferenceable(60) %32, i8 0, i64 60, i1 false)
  call void @llvm.memcpy.p0.p0.i64(ptr noundef nonnull align 64 dereferenceable(64) %8, ptr noundef nonnull align 16 dereferenceable(64) @blake2b_IV, i64 64, i1 false)
  %33 = getelementptr inbounds nuw i8, ptr %8, i64 64
  call void @llvm.memset.p0.i64(ptr noundef nonnull align 64 dereferenceable(297) %33, i8 noundef 0, i64 noundef 297, i1 noundef false) #8
  br label %34

34:                                               ; preds = %34, %28
  %.07.i.i = phi i64 [ 0, %28 ], [ %41, %34 ]
  %35 = shl nuw nsw i64 %.07.i.i, 3
  %36 = getelementptr i8, ptr %7, i64 %35
  %37 = load i64, ptr %36, align 8
  %38 = getelementptr [8 x i64], ptr %8, i64 0, i64 %.07.i.i
  %39 = load i64, ptr %38, align 8
  %40 = xor i64 %39, %37
  store i64 %40, ptr %38, align 8
  %41 = add nuw nsw i64 %.07.i.i, 1
  %exitcond.not.i.i = icmp eq i64 %41, 8
  br i1 %exitcond.not.i.i, label %_sodium_blake2b_init.exit, label %34, !llvm.loop !4

_sodium_blake2b_init.exit:                        ; preds = %34
  call void @llvm.lifetime.end.p0(i64 64, ptr nonnull %7) #8
  br label %42

42:                                               ; preds = %_sodium_blake2b_init.exit, %26
  %43 = call i32 @_sodium_blake2b_update(ptr noundef nonnull %8, ptr noundef %1, i64 noundef %4)
  %44 = call i32 @_sodium_blake2b_final(ptr noundef nonnull %8, ptr noundef nonnull %0, i8 noundef zeroext %3)
  call void @llvm.lifetime.end.p0(i64 361, ptr nonnull %8) #8
  ret i32 0
}